target datalayout = "e-m:e-p270:32:32-p271:32:32-p272:64:64-i64:64-i128:128-f80:128-n8:16:32:64-S128"
target triple = "x86_64-pc-linux-gnu"

%"class.pxrInternal_v0_24__pxrReserved__::GfMatrix4d" = type { %"class.pxrInternal_v0_24__pxrReserved__::GfMatrixData" }
%"class.pxrInternal_v0_24__pxrReserved__::GfMatrixData" = type { [16 x double] }
%"class.pxrInternal_v0_24__pxrReserved__::GfVec3d" = type { [3 x double] }
%"class.pxrInternal_v0_24__pxrReserved__::TfCallContext" = type <{ ptr, ptr, i64, ptr, i8, [7 x i8] }>

@.str.6 = private unnamed_addr constant [118 x i8] c"generated/home/dtcxzyw/WorkSpace/Projects/compilers/llvm-opt-benchmark/bench/openusd/OpenUSD/pxr/base/gf/matrix4d.cpp\00", align 1
@__func__._ZN32pxrInternal_v0_24__pxrReserved__10GfMatrix4d14OrthonormalizeEb = private unnamed_addr constant [15 x i8] c"Orthonormalize\00", align 1
@__PRETTY_FUNCTION__._ZN32pxrInternal_v0_24__pxrReserved__10GfMatrix4d14OrthonormalizeEb = private unnamed_addr constant [72 x i8] c"bool pxrInternal_v0_24__pxrReserved__::GfMatrix4d::Orthonormalize(bool)\00", align 1
@.str.7 = private unnamed_addr constant [68 x i8] c"OrthogonalizeBasis did not converge, matrix may not be orthonormal.\00", align 1

; Function Attrs: mustprogress nounwind uwtable
define linkonce_odr void @_ZN32pxrInternal_v0_24__pxrReserved__13TfCallContextC2EPKcS2_mS2_(ptr noundef nonnull align 8 dereferenceable(33) %0, ptr noundef %1, ptr noundef %2, i64 noundef %3, ptr noundef %4) unnamed_addr #2 comdat align 2 {
  %6 = alloca ptr, align 8
  %7 = alloca ptr, align 8
  %8 = alloca ptr, align 8
  %9 = alloca i64, align 8
  %10 = alloca ptr, align 8
  store ptr %0, ptr %6, align 8
  store ptr %1, ptr %7, align 8
  store ptr %2, ptr %8, align 8
  store i64 %3, ptr %9, align 8
  store ptr %4, ptr %10, align 8
  %11 = load ptr, ptr %6, align 8
  %12 = getelementptr inbounds nuw %"class.pxrInternal_v0_24__pxrReserved__::TfCallContext", ptr %11, i32 0, i32 0
  %13 = load ptr, ptr %7, align 8
  store ptr %13, ptr %12, align 8
  %14 = getelementptr inbounds nuw %"class.pxrInternal_v0_24__pxrReserved__::TfCallContext", ptr %11, i32 0, i32 1
  %15 = load ptr, ptr %8, align 8
  store ptr %15, ptr %14, align 8
  %16 = getelementptr inbounds nuw %"class.pxrInternal_v0_24__pxrReserved__::TfCallContext", ptr %11, i32 0, i32 2
  %17 = load i64, ptr %9, align 8
  store i64 %17, ptr %16, align 8
  %18 = getelementptr inbounds nuw %"class.pxrInternal_v0_24__pxrReserved__::TfCallContext", ptr %11, i32 0, i32 3
  %19 = load ptr, ptr %10, align 8
  store ptr %19, ptr %18, align 8
  %20 = getelementptr inbounds nuw %"class.pxrInternal_v0_24__pxrReserved__::TfCallContext", ptr %11, i32 0, i32 4
  store i8 0, ptr %20, align 8
  ret void
}

; Function Attrs: mustprogress nounwind uwtable
define linkonce_odr noundef zeroext i1 @_ZN32pxrInternal_v0_24__pxrReserved__9GfIsCloseEddd(double noundef %0, double noundef %1, double noundef %2) #2 comdat {
  %4 = alloca double, align 8
  %5 = alloca double, align 8
  %6 = alloca double, align 8
  store double %0, ptr %4, align 8
  store double %1, ptr %5, align 8
  store double %2, ptr %6, align 8
  %7 = load double, ptr %4, align 8
  %8 = load double, ptr %5, align 8
  %9 = fsub double %7, %8
  %10 = call double @llvm.fabs.f64(double %9)
  %11 = load double, ptr %6, align 8
  %12 = fcmp olt double %10, %11
  ret i1 %12
}

; Function Attrs: mustprogress nounwind uwtable
define linkonce_odr noundef nonnull align 8 dereferenceable(8) ptr @_ZN32pxrInternal_v0_24__pxrReserved__7GfVec3dixEm(ptr noundef nonnull align 8 dereferenceable(24) %0, i64 noundef %1) #2 comdat align 2 {
  %3 = alloca ptr, align 8
  %4 = alloca i64, align 8
  store ptr %0, ptr %3, align 8
  store i64 %1, ptr %4, align 8
  %5 = load ptr, ptr %3, align 8
  %6 = getelementptr inbounds nuw %"class.pxrInternal_v0_24__pxrReserved__::GfVec3d", ptr %5, i32 0, i32 0
  %7 = load i64, ptr %4, align 8
  %8 = getelementptr inbounds [3 x double], ptr %6, i64 0, i64 %7
  ret ptr %8
}

; Function Attrs: mustprogress nounwind uwtable
define linkonce_odr void @_ZN32pxrInternal_v0_24__pxrReserved__7GfVec3dC2Eddd(ptr noundef nonnull align 8 dereferenceable(24) %0, double noundef %1, double noundef %2, double noundef %3) unnamed_addr #2 comdat align 2 {
  %5 = alloca ptr, align 8
  %6 = alloca double, align 8
  %7 = alloca double, align 8
  %8 = alloca double, align 8
  store ptr %0, ptr %5, align 8
  store double %1, ptr %6, align 8
  store double %2, ptr %7, align 8
  store double %3, ptr %8, align 8
  %9 = load ptr, ptr %5, align 8
  %10 = getelementptr inbounds nuw %"class.pxrInternal_v0_24__pxrReserved__::GfVec3d", ptr %9, i32 0, i32 0
  %11 = load double, ptr %6, align 8
  store double %11, ptr %10, align 8
  %12 = getelementptr inbounds double, ptr %10, i64 1
  %13 = load double, ptr %7, align 8
  store double %13, ptr %12, align 8
  %14 = getelementptr inbounds double, ptr %10, i64 2
  %15 = load double, ptr %8, align 8
  store double %15, ptr %14, align 8
  ret void
}

; Function Attrs: mustprogress nounwind uwtable
define linkonce_odr noundef ptr @_ZN32pxrInternal_v0_24__pxrReserved__12GfMatrixDataIdLi4ELi4EEixEi(ptr noundef nonnull align 8 dereferenceable(128) %0, i32 noundef %1) #2 comdat align 2 {
  %3 = alloca ptr, align 8
  %4 = alloca i32, align 4
  store ptr %0, ptr %3, align 8
  store i32 %1, ptr %4, align 4
  %5 = load ptr, ptr %3, align 8
  %6 = getelementptr inbounds nuw %"class.pxrInternal_v0_24__pxrReserved__::GfMatrixData", ptr %5, i32 0, i32 0
  %7 = getelementptr inbounds [16 x double], ptr %6, i64 0, i64 0
  %8 = load i32, ptr %4, align 4
  %9 = mul nsw i32 %8, 4
  %10 = sext i32 %9 to i64
  %11 = getelementptr inbounds double, ptr %7, i64 %10
  ret ptr %11
}

; Function Attrs: mustprogress uwtable
define noundef zeroext i1 @_ZN32pxrInternal_v0_24__pxrReserved__10GfMatrix4d14OrthonormalizeEb(ptr noundef nonnull align 8 dereferenceable(128) %0, i1 noundef zeroext %1) #0 align 2 {
  %3 = alloca ptr, align 8
  %4 = alloca i8, align 1
  %5 = alloca %"class.pxrInternal_v0_24__pxrReserved__::GfVec3d", align 8
  %6 = alloca %"class.pxrInternal_v0_24__pxrReserved__::GfVec3d", align 8
  %7 = alloca %"class.pxrInternal_v0_24__pxrReserved__::GfVec3d", align 8
  %8 = alloca i8, align 1
  %9 = alloca %"class.pxrInternal_v0_24__pxrReserved__::TfCallContext", align 8
  store ptr %0, ptr %3, align 8
  %10 = zext i1 %1 to i8
  store i8 %10, ptr %4, align 1
  %11 = load ptr, ptr %3, align 8
  %12 = getelementptr inbounds nuw %"class.pxrInternal_v0_24__pxrReserved__::GfMatrix4d", ptr %11, i32 0, i32 0
  %13 = call noundef ptr @_ZN32pxrInternal_v0_24__pxrReserved__12GfMatrixDataIdLi4ELi4EEixEi(ptr noundef nonnull align 8 dereferenceable(128) %12, i32 noundef 0)
  %14 = getelementptr inbounds double, ptr %13, i64 0
  %15 = load double, ptr %14, align 8
  %16 = getelementptr inbounds nuw %"class.pxrInternal_v0_24__pxrReserved__::GfMatrix4d", ptr %11, i32 0, i32 0
  %17 = call noundef ptr @_ZN32pxrInternal_v0_24__pxrReserved__12GfMatrixDataIdLi4ELi4EEixEi(ptr noundef nonnull align 8 dereferenceable(128) %16, i32 noundef 0)
  %18 = getelementptr inbounds double, ptr %17, i64 1
  %19 = load double, ptr %18, align 8
  %20 = getelementptr inbounds nuw %"class.pxrInternal_v0_24__pxrReserved__::GfMatrix4d", ptr %11, i32 0, i32 0
  %21 = call noundef ptr @_ZN32pxrInternal_v0_24__pxrReserved__12GfMatrixDataIdLi4ELi4EEixEi(ptr noundef nonnull align 8 dereferenceable(128) %20, i32 noundef 0)
  %22 = getelementptr inbounds double, ptr %21, i64 2
  %23 = load double, ptr %22, align 8
  call void @_ZN32pxrInternal_v0_24__pxrReserved__7GfVec3dC2Eddd(ptr noundef nonnull align 8 dereferenceable(24) %5, double noundef %15, double noundef %19, double noundef %23)
  %24 = getelementptr inbounds nuw %"class.pxrInternal_v0_24__pxrReserved__::GfMatrix4d", ptr %11, i32 0, i32 0
  %25 = call noundef ptr @_ZN32pxrInternal_v0_24__pxrReserved__12GfMatrixDataIdLi4ELi4EEixEi(ptr noundef nonnull align 8 dereferenceable(128) %24, i32 noundef 1)
  %26 = getelementptr inbounds double, ptr %25, i64 0
  %27 = load double, ptr %26, align 8
  %28 = getelementptr inbounds nuw %"class.pxrInternal_v0_24__pxrReserved__::GfMatrix4d", ptr %11, i32 0, i32 0
  %29 = call noundef ptr @_ZN32pxrInternal_v0_24__pxrReserved__12GfMatrixDataIdLi4ELi4EEixEi(ptr noundef nonnull align 8 dereferenceable(128) %28, i32 noundef 1)
  %30 = getelementptr inbounds double, ptr %29, i64 1
  %31 = load double, ptr %30, align 8
  %32 = getelementptr inbounds nuw %"class.pxrInternal_v0_24__pxrReserved__::GfMatrix4d", ptr %11, i32 0, i32 0
  %33 = call noundef ptr @_ZN32pxrInternal_v0_24__pxrReserved__12GfMatrixDataIdLi4ELi4EEixEi(ptr noundef nonnull align 8 dereferenceable(128) %32, i32 noundef 1)
  %34 = getelementptr inbounds double, ptr %33, i64 2
  %35 = load double, ptr %34, align 8
  call void @_ZN32pxrInternal_v0_24__pxrReserved__7GfVec3dC2Eddd(ptr noundef nonnull align 8 dereferenceable(24) %6, double noundef %27, double noundef %31, double noundef %35)
  %36 = getelementptr inbounds nuw %"class.pxrInternal_v0_24__pxrReserved__::GfMatrix4d", ptr %11, i32 0, i32 0
  %37 = call noundef ptr @_ZN32pxrInternal_v0_24__pxrReserved__12GfMatrixDataIdLi4ELi4EEixEi(ptr noundef nonnull align 8 dereferenceable(128) %36, i32 noundef 2)
  %38 = getelementptr inbounds double, ptr %37, i64 0
  %39 = load double, ptr %38, align 8
  %40 = getelementptr inbounds nuw %"class.pxrInternal_v0_24__pxrReserved__::GfMatrix4d", ptr %11, i32 0, i32 0
  %41 = call noundef ptr @_ZN32pxrInternal_v0_24__pxrReserved__12GfMatrixDataIdLi4ELi4EEixEi(ptr noundef nonnull align 8 dereferenceable(128) %40, i32 noundef 2)
  %42 = getelementptr inbounds double, ptr %41, i64 1
  %43 = load double, ptr %42, align 8
  %44 = getelementptr inbounds nuw %"class.pxrInternal_v0_24__pxrReserved__::GfMatrix4d", ptr %11, i32 0, i32 0
  %45 = call noundef ptr @_ZN32pxrInternal_v0_24__pxrReserved__12GfMatrixDataIdLi4ELi4EEixEi(ptr noundef nonnull align 8 dereferenceable(128) %44, i32 noundef 2)
  %46 = getelementptr inbounds double, ptr %45, i64 2
  %47 = load double, ptr %46, align 8
  call void @_ZN32pxrInternal_v0_24__pxrReserved__7GfVec3dC2Eddd(ptr noundef nonnull align 8 dereferenceable(24) %7, double noundef %39, double noundef %43, double noundef %47)
  %48 = call noundef zeroext i1 @_ZN32pxrInternal_v0_24__pxrReserved__7GfVec3d18OrthogonalizeBasisEPS0_S1_S1_bd(ptr noundef %5, ptr noundef %6, ptr noundef %7, i1 noundef zeroext true, double noundef 0x3EB0C6F7A0B5ED8D)
  %49 = zext i1 %48 to i8
  store i8 %49, ptr %8, align 1
  %50 = call noundef nonnull align 8 dereferenceable(8) ptr @_ZN32pxrInternal_v0_24__pxrReserved__7GfVec3dixEm(ptr noundef nonnull align 8 dereferenceable(24) %5, i64 noundef 0)
  %51 = load double, ptr %50, align 8
  %52 = getelementptr inbounds nuw %"class.pxrInternal_v0_24__pxrReserved__::GfMatrix4d", ptr %11, i32 0, i32 0
  %53 = call noundef ptr @_ZN32pxrInternal_v0_24__pxrReserved__12GfMatrixDataIdLi4ELi4EEixEi(ptr noundef nonnull align 8 dereferenceable(128) %52, i32 noundef 0)
  %54 = getelementptr inbounds double, ptr %53, i64 0
  store double %51, ptr %54, align 8
  %55 = call noundef nonnull align 8 dereferenceable(8) ptr @_ZN32pxrInternal_v0_24__pxrReserved__7GfVec3dixEm(ptr noundef nonnull align 8 dereferenceable(24) %5, i64 noundef 1)
  %56 = load double, ptr %55, align 8
  %57 = getelementptr inbounds nuw %"class.pxrInternal_v0_24__pxrReserved__::GfMatrix4d", ptr %11, i32 0, i32 0
  %58 = call noundef ptr @_ZN32pxrInternal_v0_24__pxrReserved__12GfMatrixDataIdLi4ELi4EEixEi(ptr noundef nonnull align 8 dereferenceable(128) %57, i32 noundef 0)
  %59 = getelementptr inbounds double, ptr %58, i64 1
  store double %56, ptr %59, align 8
  %60 = call noundef nonnull align 8 dereferenceable(8) ptr @_ZN32pxrInternal_v0_24__pxrReserved__7GfVec3dixEm(ptr noundef nonnull align 8 dereferenceable(24) %5, i64 noundef 2)
  %61 = load double, ptr %60, align 8
  %62 = getelementptr inbounds nuw %"class.pxrInternal_v0_24__pxrReserved__::GfMatrix4d", ptr %11, i32 0, i32 0
  %63 = call noundef ptr @_ZN32pxrInternal_v0_24__pxrReserved__12GfMatrixDataIdLi4ELi4EEixEi(ptr noundef nonnull align 8 dereferenceable(128) %62, i32 noundef 0)
  %64 = getelementptr inbounds double, ptr %63, i64 2
  store double %61, ptr %64, align 8
  %65 = call noundef nonnull align 8 dereferenceable(8) ptr @_ZN32pxrInternal_v0_24__pxrReserved__7GfVec3dixEm(ptr noundef nonnull align 8 dereferenceable(24) %6, i64 noundef 0)
  %66 = load double, ptr %65, align 8
  %67 = getelementptr inbounds nuw %"class.pxrInternal_v0_24__pxrReserved__::GfMatrix4d", ptr %11, i32 0, i32 0
  %68 = call noundef ptr @_ZN32pxrInternal_v0_24__pxrReserved__12GfMatrixDataIdLi4ELi4EEixEi(ptr noundef nonnull align 8 dereferenceable(128) %67, i32 noundef 1)
  %69 = getelementptr inbounds double, ptr %68, i64 0
  store double %66, ptr %69, align 8
  %70 = call noundef nonnull align 8 dereferenceable(8) ptr @_ZN32pxrInternal_v0_24__pxrReserved__7GfVec3dixEm(ptr noundef nonnull align 8 dereferenceable(24) %6, i64 noundef 1)
  %71 = load double, ptr %70, align 8
  %72 = getelementptr inbounds nuw %"class.pxrInternal_v0_24__pxrReserved__::GfMatrix4d", ptr %11, i32 0, i32 0
  %73 = call noundef ptr @_ZN32pxrInternal_v0_24__pxrReserved__12GfMatrixDataIdLi4ELi4EEixEi(ptr noundef nonnull align 8 dereferenceable(128) %72, i32 noundef 1)
  %74 = getelementptr inbounds double, ptr %73, i64 1
  store double %71, ptr %74, align 8
  %75 = call noundef nonnull align 8 dereferenceable(8) ptr @_ZN32pxrInternal_v0_24__pxrReserved__7GfVec3dixEm(ptr noundef nonnull align 8 dereferenceable(24) %6, i64 noundef 2)
  %76 = load double, ptr %75, align 8
  %77 = getelementptr inbounds nuw %"class.pxrInternal_v0_24__pxrReserved__::GfMatrix4d", ptr %11, i32 0, i32 0
  %78 = call noundef ptr @_ZN32pxrInternal_v0_24__pxrReserved__12GfMatrixDataIdLi4ELi4EEixEi(ptr noundef nonnull align 8 dereferenceable(128) %77, i32 noundef 1)
  %79 = getelementptr inbounds double, ptr %78, i64 2
  store double %76, ptr %79, align 8
  %80 = call noundef nonnull align 8 dereferenceable(8) ptr @_ZN32pxrInternal_v0_24__pxrReserved__7GfVec3dixEm(ptr noundef nonnull align 8 dereferenceable(24) %7, i64 noundef 0)
  %81 = load double, ptr %80, align 8
  %82 = getelementptr inbounds nuw %"class.pxrInternal_v0_24__pxrReserved__::GfMatrix4d", ptr %11, i32 0, i32 0
  %83 = call noundef ptr @_ZN32pxrInternal_v0_24__pxrReserved__12GfMatrixDataIdLi4ELi4EEixEi(ptr noundef nonnull align 8 dereferenceable(128) %82, i32 noundef 2)
  %84 = getelementptr inbounds double, ptr %83, i64 0
  store double %81, ptr %84, align 8
  %85 = call noundef nonnull align 8 dereferenceable(8) ptr @_ZN32pxrInternal_v0_24__pxrReserved__7GfVec3dixEm(ptr noundef nonnull align 8 dereferenceable(24) %7, i64 noundef 1)
  %86 = load double, ptr %85, align 8
  %87 = getelementptr inbounds nuw %"class.pxrInternal_v0_24__pxrReserved__::GfMatrix4d", ptr %11, i32 0, i32 0
  %88 = call noundef ptr @_ZN32pxrInternal_v0_24__pxrReserved__12GfMatrixDataIdLi4ELi4EEixEi(ptr noundef nonnull align 8 dereferenceable(128) %87, i32 noundef 2)
  %89 = getelementptr inbounds double, ptr %88, i64 1
  store double %86, ptr %89, align 8
  %90 = call noundef nonnull align 8 dereferenceable(8) ptr @_ZN32pxrInternal_v0_24__pxrReserved__7GfVec3dixEm(ptr noundef nonnull align 8 dereferenceable(24) %7, i64 noundef 2)
  %91 = load double, ptr %90, align 8
  %92 = getelementptr inbounds nuw %"class.pxrInternal_v0_24__pxrReserved__::GfMatrix4d", ptr %11, i32 0, i32 0
  %93 = call noundef ptr @_ZN32pxrInternal_v0_24__pxrReserved__12GfMatrixDataIdLi4ELi4EEixEi(ptr noundef nonnull align 8 dereferenceable(128) %92, i32 noundef 2)
  %94 = getelementptr inbounds double, ptr %93, i64 2
  store double %91, ptr %94, align 8
  %95 = getelementptr inbounds nuw %"class.pxrInternal_v0_24__pxrReserved__::GfMatrix4d", ptr %11, i32 0, i32 0
  %96 = call noundef ptr @_ZN32pxrInternal_v0_24__pxrReserved__12GfMatrixDataIdLi4ELi4EEixEi(ptr noundef nonnull align 8 dereferenceable(128) %95, i32 noundef 3)
  %97 = getelementptr inbounds double, ptr %96, i64 3
  %98 = load double, ptr %97, align 8
  %99 = fcmp une double %98, 1.000000e+00
  br i1 %99, label %100, label %137

100:                                              ; preds = %2
  %101 = getelementptr inbounds nuw %"class.pxrInternal_v0_24__pxrReserved__::GfMatrix4d", ptr %11, i32 0, i32 0
  %102 = call noundef ptr @_ZN32pxrInternal_v0_24__pxrReserved__12GfMatrixDataIdLi4ELi4EEixEi(ptr noundef nonnull align 8 dereferenceable(128) %101, i32 noundef 3)
  %103 = getelementptr inbounds double, ptr %102, i64 3
  %104 = load double, ptr %103, align 8
  %105 = call noundef zeroext i1 @_ZN32pxrInternal_v0_24__pxrReserved__9GfIsCloseEddd(double noundef %104, double noundef 0.000000e+00, double noundef 1.000000e-10)
  br i1 %105, label %137, label %106

106:                                              ; preds = %100
  %107 = getelementptr inbounds nuw %"class.pxrInternal_v0_24__pxrReserved__::GfMatrix4d", ptr %11, i32 0, i32 0
  %108 = call noundef ptr @_ZN32pxrInternal_v0_24__pxrReserved__12GfMatrixDataIdLi4ELi4EEixEi(ptr noundef nonnull align 8 dereferenceable(128) %107, i32 noundef 3)
  %109 = getelementptr inbounds double, ptr %108, i64 3
  %110 = load double, ptr %109, align 8
  %111 = getelementptr inbounds nuw %"class.pxrInternal_v0_24__pxrReserved__::GfMatrix4d", ptr %11, i32 0, i32 0
  %112 = call noundef ptr @_ZN32pxrInternal_v0_24__pxrReserved__12GfMatrixDataIdLi4ELi4EEixEi(ptr noundef nonnull align 8 dereferenceable(128) %111, i32 noundef 3)
  %113 = getelementptr inbounds double, ptr %112, i64 0
  %114 = load double, ptr %113, align 8
  %115 = fdiv double %114, %110
  store double %115, ptr %113, align 8
  %116 = getelementptr inbounds nuw %"class.pxrInternal_v0_24__pxrReserved__::GfMatrix4d", ptr %11, i32 0, i32 0
  %117 = call noundef ptr @_ZN32pxrInternal_v0_24__pxrReserved__12GfMatrixDataIdLi4ELi4EEixEi(ptr noundef nonnull align 8 dereferenceable(128) %116, i32 noundef 3)
  %118 = getelementptr inbounds double, ptr %117, i64 3
  %119 = load double, ptr %118, align 8
  %120 = getelementptr inbounds nuw %"class.pxrInternal_v0_24__pxrReserved__::GfMatrix4d", ptr %11, i32 0, i32 0
  %121 = call noundef ptr @_ZN32pxrInternal_v0_24__pxrReserved__12GfMatrixDataIdLi4ELi4EEixEi(ptr noundef nonnull align 8 dereferenceable(128) %120, i32 noundef 3)
  %122 = getelementptr inbounds double, ptr %121, i64 1
  %123 = load double, ptr %122, align 8
  %124 = fdiv double %123, %119
  store double %124, ptr %122, align 8
  %125 = getelementptr inbounds nuw %"class.pxrInternal_v0_24__pxrReserved__::GfMatrix4d", ptr %11, i32 0, i32 0
  %126 = call noundef ptr @_ZN32pxrInternal_v0_24__pxrReserved__12GfMatrixDataIdLi4ELi4EEixEi(ptr noundef nonnull align 8 dereferenceable(128) %125, i32 noundef 3)
  %127 = getelementptr inbounds double, ptr %126, i64 3
  %128 = load double, ptr %127, align 8
  %129 = getelementptr inbounds nuw %"class.pxrInternal_v0_24__pxrReserved__::GfMatrix4d", ptr %11, i32 0, i32 0
  %130 = call noundef ptr @_ZN32pxrInternal_v0_24__pxrReserved__12GfMatrixDataIdLi4ELi4EEixEi(ptr noundef nonnull align 8 dereferenceable(128) %129, i32 noundef 3)
  %131 = getelementptr inbounds double, ptr %130, i64 2
  %132 = load double, ptr %131, align 8
  %133 = fdiv double %132, %128
  store double %133, ptr %131, align 8
  %134 = getelementptr inbounds nuw %"class.pxrInternal_v0_24__pxrReserved__::GfMatrix4d", ptr %11, i32 0, i32 0
  %135 = call noundef ptr @_ZN32pxrInternal_v0_24__pxrReserved__12GfMatrixDataIdLi4ELi4EEixEi(ptr noundef nonnull align 8 dereferenceable(128) %134, i32 noundef 3)
  %136 = getelementptr inbounds double, ptr %135, i64 3
  store double 1.000000e+00, ptr %136, align 8
  br label %137

137:                                              ; preds = %106, %100, %2
  %138 = load i8, ptr %8, align 1
  %139 = trunc i8 %138 to i1
  br i1 %139, label %144, label %140

140:                                              ; preds = %137
  %141 = load i8, ptr %4, align 1
  %142 = trunc i8 %141 to i1
  br i1 %142, label %143, label %144

143:                                              ; preds = %140
  call void @_ZN32pxrInternal_v0_24__pxrReserved__13TfCallContextC2EPKcS2_mS2_(ptr noundef nonnull align 8 dereferenceable(33) %9, ptr noundef @.str.6, ptr noundef @__func__._ZN32pxrInternal_v0_24__pxrReserved__10GfMatrix4d14OrthonormalizeEb, i64 noundef 478, ptr noundef @__PRETTY_FUNCTION__._ZN32pxrInternal_v0_24__pxrReserved__10GfMatrix4d14OrthonormalizeEb)
  call void (ptr, ptr, ...) @_ZN32pxrInternal_v0_24__pxrReserved__20Tf_PostWarningHelperERKNS_13TfCallContextEPKcz(ptr noundef nonnull align 8 dereferenceable(33) %9, ptr noundef @.str.7)
  br label %144

144:                                              ; preds = %143, %140, %137
  %145 = load i8, ptr %8, align 1
  %146 = trunc i8 %145 to i1
  ret i1 %146
}