; Function Attrs: mustprogress uwtable
define noundef zeroext i1 @_ZN32pxrInternal_v0_24__pxrReserved__10GfMatrix4d14OrthonormalizeEb(ptr nocapture noundef nonnull align 8 dereferenceable(128) %0, i1 noundef zeroext %1) local_unnamed_addr #0 align 2 {
  %3 = alloca %"class.pxrInternal_v0_24__pxrReserved__::GfVec3d", align 8
  %4 = alloca %"class.pxrInternal_v0_24__pxrReserved__::GfVec3d", align 8
  %5 = alloca %"class.pxrInternal_v0_24__pxrReserved__::GfVec3d", align 8
  %6 = alloca %"class.pxrInternal_v0_24__pxrReserved__::TfCallContext", align 8
  %7 = load double, ptr %0, align 8
  %8 = getelementptr inbounds i8, ptr %0, i64 8
  %9 = load double, ptr %8, align 8
  %10 = getelementptr inbounds i8, ptr %0, i64 16
  %11 = load double, ptr %10, align 8
  store double %7, ptr %3, align 8
  %12 = getelementptr inbounds i8, ptr %3, i64 8
  store double %9, ptr %12, align 8
  %13 = getelementptr inbounds i8, ptr %3, i64 16
  store double %11, ptr %13, align 8
  %14 = getelementptr inbounds i8, ptr %0, i64 32
  %15 = load double, ptr %14, align 8
  %16 = getelementptr inbounds i8, ptr %0, i64 40
  %17 = load double, ptr %16, align 8
  %18 = getelementptr inbounds i8, ptr %0, i64 48
  %19 = load double, ptr %18, align 8
  store double %15, ptr %4, align 8
  %20 = getelementptr inbounds i8, ptr %4, i64 8
  store double %17, ptr %20, align 8
  %21 = getelementptr inbounds i8, ptr %4, i64 16
  store double %19, ptr %21, align 8
  %22 = getelementptr inbounds i8, ptr %0, i64 64
  %23 = load double, ptr %22, align 8
  %24 = getelementptr inbounds i8, ptr %0, i64 72
  %25 = load double, ptr %24, align 8
  %26 = getelementptr inbounds i8, ptr %0, i64 80
  %27 = load double, ptr %26, align 8
  store double %23, ptr %5, align 8
  %28 = getelementptr inbounds i8, ptr %5, i64 8
  store double %25, ptr %28, align 8
  %29 = getelementptr inbounds i8, ptr %5, i64 16
  store double %27, ptr %29, align 8
  %30 = call noundef zeroext i1 @_ZN32pxrInternal_v0_24__pxrReserved__7GfVec3d18OrthogonalizeBasisEPS0_S1_S1_bd(ptr noundef nonnull %3, ptr noundef nonnull %4, ptr noundef nonnull %5, i1 noundef zeroext true, double noundef 0x3EB0C6F7A0B5ED8D)
  %31 = load double, ptr %3, align 8
  store double %31, ptr %0, align 8
  %32 = load double, ptr %12, align 8
  store double %32, ptr %8, align 8
  %33 = load double, ptr %13, align 8
  store double %33, ptr %10, align 8
  %34 = load double, ptr %4, align 8
  store double %34, ptr %14, align 8
  %35 = load double, ptr %20, align 8
  store double %35, ptr %16, align 8
  %36 = load double, ptr %21, align 8
  store double %36, ptr %18, align 8
  %37 = load double, ptr %5, align 8
  store double %37, ptr %22, align 8
  %38 = load double, ptr %28, align 8
  store double %38, ptr %24, align 8
  %39 = load double, ptr %29, align 8
  store double %39, ptr %26, align 8
  %40 = getelementptr inbounds i8, ptr %0, i64 120
  %41 = load double, ptr %40, align 8
  %42 = fcmp oeq double %41, 1.000000e+00
  %43 = call double @llvm.fabs.f64(double %41)
  %44 = fcmp olt double %43, 1.000000e-10
  %or.cond = or i1 %42, %44
  br i1 %or.cond, label %55, label %45

45:                                               ; preds = %2
  %46 = getelementptr inbounds i8, ptr %0, i64 96
  %47 = load double, ptr %46, align 8
  %48 = fdiv double %47, %41
  store double %48, ptr %46, align 8
  %49 = getelementptr inbounds i8, ptr %0, i64 104
  %50 = load double, ptr %49, align 8
  %51 = fdiv double %50, %41
  store double %51, ptr %49, align 8
  %52 = getelementptr inbounds i8, ptr %0, i64 112
  %53 = load double, ptr %52, align 8
  %54 = fdiv double %53, %41
  store double %54, ptr %52, align 8
  store double 1.000000e+00, ptr %40, align 8
  br label %55

55:                                               ; preds = %45, %2
  %.not = xor i1 %1, true
  %brmerge = or i1 %30, %.not
  br i1 %brmerge, label %61, label %56

56:                                               ; preds = %55
  store ptr @.str.6, ptr %6, align 8
  %57 = getelementptr inbounds nuw i8, ptr %6, i64 8
  store ptr @__func__._ZN32pxrInternal_v0_24__pxrReserved__10GfMatrix4d14OrthonormalizeEb, ptr %57, align 8
  %58 = getelementptr inbounds nuw i8, ptr %6, i64 16
  store i64 478, ptr %58, align 8
  %59 = getelementptr inbounds nuw i8, ptr %6, i64 24
  store ptr @__PRETTY_FUNCTION__._ZN32pxrInternal_v0_24__pxrReserved__10GfMatrix4d14OrthonormalizeEb, ptr %59, align 8
  %60 = getelementptr inbounds nuw i8, ptr %6, i64 32
  store i8 0, ptr %60, align 8
  call void (ptr, ptr, ...) @_ZN32pxrInternal_v0_24__pxrReserved__20Tf_PostWarningHelperERKNS_13TfCallContextEPKcz(ptr noundef nonnull align 8 dereferenceable(33) %6, ptr noundef nonnull @.str.7)
  br label %61

61:                                               ; preds = %55, %56
  ret i1 %30
}